; ModuleID = '19/71.c'
source_filename = "19/71.c"
target datalayout = "e-m:e-p270:32:32-p271:32:32-p272:64:64-i64:64-f80:128-n8:16:32:64-S128"
target triple = "x86_64-pc-linux-gnu"

; Function Attrs: noinline nounwind uwtable
define dso_local void @main() #0 {
  %1 = alloca [101 x i8], align 16
  %2 = alloca [101 x i8], align 16
  %3 = alloca [101 x i8], align 16
  %4 = alloca [10001 x i8], align 16
  %5 = alloca [101 x i32], align 16
  %6 = alloca i32, align 4
  %7 = alloca i32, align 4
  %8 = alloca i32, align 4
  %9 = alloca [2 x i8], align 1
  %10 = alloca i32, align 4
  %11 = alloca i32, align 4
  %12 = alloca [101 x i8], align 16
  store i32 0, i32* %6, align 4
  br label %13

13:                                               ; preds = %26, %0
  %14 = load i32, i32* %6, align 4
  %15 = icmp sle i32 %14, 100
  br i1 %15, label %16, label %29

16:                                               ; preds = %13
  %17 = load i32, i32* %6, align 4
  %18 = sext i32 %17 to i64
  %19 = getelementptr inbounds [101 x i8], [101 x i8]* %1, i64 0, i64 %18
  store i8 0, i8* %19, align 1
  %20 = load i32, i32* %6, align 4
  %21 = sext i32 %20 to i64
  %22 = getelementptr inbounds [10001 x i8], [10001 x i8]* %4, i64 0, i64 %21
  store i8 0, i8* %22, align 1
  %23 = load i32, i32* %6, align 4
  %24 = sext i32 %23 to i64
  %25 = getelementptr inbounds [101 x i8], [101 x i8]* %2, i64 0, i64 %24
  store i8 0, i8* %25, align 1
  br label %26

26:                                               ; preds = %16
  %27 = load i32, i32* %6, align 4
  %28 = add nsw i32 %27, 1
  store i32 %28, i32* %6, align 4
  br label %13

29:                                               ; preds = %13
  %30 = getelementptr inbounds [101 x i8], [101 x i8]* %1, i64 0, i64 0
  %31 = call i32 (i8*, ...) bitcast (i32 (...)* @gets to i32 (i8*, ...)*)(i8* %30)
  %32 = getelementptr inbounds [101 x i8], [101 x i8]* %2, i64 0, i64 0
  %33 = call i32 (i8*, ...) bitcast (i32 (...)* @gets to i32 (i8*, ...)*)(i8* %32)
  %34 = getelementptr inbounds [101 x i8], [101 x i8]* %3, i64 0, i64 0
  %35 = call i32 (i8*, ...) bitcast (i32 (...)* @gets to i32 (i8*, ...)*)(i8* %34)
  %36 = getelementptr inbounds [101 x i8], [101 x i8]* %1, i64 0, i64 0
  %37 = call i64 @strlen(i8* %36) #4
  %38 = trunc i64 %37 to i32
  store i32 %38, i32* %7, align 4
  %39 = getelementptr inbounds [101 x i32], [101 x i32]* %5, i64 0, i64 0
  store i32 -1, i32* %39, align 16
  store i32 1, i32* %8, align 4
  store i32 0, i32* %6, align 4
  br label %40

40:                                               ; preds = %60, %29
  %41 = load i32, i32* %6, align 4
  %42 = load i32, i32* %7, align 4
  %43 = sub nsw i32 %42, 1
  %44 = icmp sle i32 %41, %43
  br i1 %44, label %45, label %63

45:                                               ; preds = %40
  %46 = load i32, i32* %6, align 4
  %47 = sext i32 %46 to i64
  %48 = getelementptr inbounds [101 x i8], [101 x i8]* %1, i64 0, i64 %47
  %49 = load i8, i8* %48, align 1
  %50 = sext i8 %49 to i32
  %51 = icmp eq i32 %50, 32
  br i1 %51, label %52, label %59

52:                                               ; preds = %45
  %53 = load i32, i32* %6, align 4
  %54 = load i32, i32* %8, align 4
  %55 = sext i32 %54 to i64
  %56 = getelementptr inbounds [101 x i32], [101 x i32]* %5, i64 0, i64 %55
  store i32 %53, i32* %56, align 4
  %57 = load i32, i32* %8, align 4
  %58 = add nsw i32 %57, 1
  store i32 %58, i32* %8, align 4
  br label %59

59:                                               ; preds = %52, %45
  br label %60

60:                                               ; preds = %59
  %61 = load i32, i32* %6, align 4
  %62 = add nsw i32 %61, 1
  store i32 %62, i32* %6, align 4
  br label %40

63:                                               ; preds = %40
  %64 = load i32, i32* %7, align 4
  %65 = load i32, i32* %8, align 4
  %66 = sext i32 %65 to i64
  %67 = getelementptr inbounds [101 x i32], [101 x i32]* %5, i64 0, i64 %66
  store i32 %64, i32* %67, align 4
  %68 = getelementptr inbounds [2 x i8], [2 x i8]* %9, i64 0, i64 0
  store i8 32, i8* %68, align 1
  %69 = getelementptr inbounds [2 x i8], [2 x i8]* %9, i64 0, i64 1
  store i8 0, i8* %69, align 1
  store i32 1, i32* %6, align 4
  br label %70

70:                                               ; preds = %142, %63
  %71 = load i32, i32* %6, align 4
  %72 = load i32, i32* %8, align 4
  %73 = icmp sle i32 %71, %72
  br i1 %73, label %74, label %145

74:                                               ; preds = %70
  store i32 0, i32* %11, align 4
  br label %75

75:                                               ; preds = %82, %74
  %76 = load i32, i32* %11, align 4
  %77 = icmp sle i32 %76, 100
  br i1 %77, label %78, label %85

78:                                               ; preds = %75
  %79 = load i32, i32* %11, align 4
  %80 = sext i32 %79 to i64
  %81 = getelementptr inbounds [101 x i8], [101 x i8]* %12, i64 0, i64 %80
  store i8 0, i8* %81, align 1
  br label %82

82:                                               ; preds = %78
  %83 = load i32, i32* %11, align 4
  %84 = add nsw i32 %83, 1
  store i32 %84, i32* %11, align 4
  br label %75

85:                                               ; preds = %75
  %86 = load i32, i32* %6, align 4
  %87 = sext i32 %86 to i64
  %88 = getelementptr inbounds [101 x i32], [101 x i32]* %5, i64 0, i64 %87
  %89 = load i32, i32* %88, align 4
  %90 = load i32, i32* %6, align 4
  %91 = sub nsw i32 %90, 1
  %92 = sext i32 %91 to i64
  %93 = getelementptr inbounds [101 x i32], [101 x i32]* %5, i64 0, i64 %92
  %94 = load i32, i32* %93, align 4
  %95 = sub nsw i32 %89, %94
  %96 = sub nsw i32 %95, 1
  store i32 %96, i32* %10, align 4
  store i32 0, i32* %11, align 4
  br label %97

97:                                               ; preds = %117, %85
  %98 = load i32, i32* %11, align 4
  %99 = load i32, i32* %10, align 4
  %100 = sub nsw i32 %99, 1
  %101 = icmp sle i32 %98, %100
  br i1 %101, label %102, label %120

102:                                              ; preds = %97
  %103 = load i32, i32* %6, align 4
  %104 = sub nsw i32 %103, 1
  %105 = sext i32 %104 to i64
  %106 = getelementptr inbounds [101 x i32], [101 x i32]* %5, i64 0, i64 %105
  %107 = load i32, i32* %106, align 4
  %108 = load i32, i32* %11, align 4
  %109 = add nsw i32 %107, %108
  %110 = add nsw i32 %109, 1
  %111 = sext i32 %110 to i64
  %112 = getelementptr inbounds [101 x i8], [101 x i8]* %1, i64 0, i64 %111
  %113 = load i8, i8* %112, align 1
  %114 = load i32, i32* %11, align 4
  %115 = sext i32 %114 to i64
  %116 = getelementptr inbounds [101 x i8], [101 x i8]* %12, i64 0, i64 %115
  store i8 %113, i8* %116, align 1
  br label %117

117:                                              ; preds = %102
  %118 = load i32, i32* %11, align 4
  %119 = add nsw i32 %118, 1
  store i32 %119, i32* %11, align 4
  br label %97

120:                                              ; preds = %97
  %121 = getelementptr inbounds [101 x i8], [101 x i8]* %2, i64 0, i64 0
  %122 = getelementptr inbounds [101 x i8], [101 x i8]* %12, i64 0, i64 0
  %123 = call i32 @strcmp(i8* %121, i8* %122) #4
  %124 = icmp eq i32 %123, 0
  br i1 %124, label %125, label %129

125:                                              ; preds = %120
  %126 = getelementptr inbounds [10001 x i8], [10001 x i8]* %4, i64 0, i64 0
  %127 = getelementptr inbounds [101 x i8], [101 x i8]* %3, i64 0, i64 0
  %128 = call i8* @strcat(i8* %126, i8* %127) #5
  br label %133

129:                                              ; preds = %120
  %130 = getelementptr inbounds [10001 x i8], [10001 x i8]* %4, i64 0, i64 0
  %131 = getelementptr inbounds [101 x i8], [101 x i8]* %12, i64 0, i64 0
  %132 = call i8* @strcat(i8* %130, i8* %131) #5
  br label %133

133:                                              ; preds = %129, %125
  %134 = load i32, i32* %6, align 4
  %135 = load i32, i32* %8, align 4
  %136 = icmp slt i32 %134, %135
  br i1 %136, label %137, label %141

137:                                              ; preds = %133
  %138 = getelementptr inbounds [10001 x i8], [10001 x i8]* %4, i64 0, i64 0
  %139 = getelementptr inbounds [2 x i8], [2 x i8]* %9, i64 0, i64 0
  %140 = call i8* @strcat(i8* %138, i8* %139) #5
  br label %141

141:                                              ; preds = %137, %133
  br label %142

142:                                              ; preds = %141
  %143 = load i32, i32* %6, align 4
  %144 = add nsw i32 %143, 1
  store i32 %144, i32* %6, align 4
  br label %70

145:                                              ; preds = %70
  %146 = getelementptr inbounds [10001 x i8], [10001 x i8]* %4, i64 0, i64 0
  %147 = call i32 @puts(i8* %146)
  ret void
}

declare dso_local i32 @gets(...) #1

; Function Attrs: nounwind readonly
declare dso_local i64 @strlen(i8*) #2

; Function Attrs: nounwind readonly
declare dso_local i32 @strcmp(i8*, i8*) #2

; Function Attrs: nounwind
declare dso_local i8* @strcat(i8*, i8*) #3

declare dso_local i32 @puts(i8*) #1


!llvm.module.flags = !{!0}
!llvm.ident = !{!1}

!0 = !{i32 1, !"wchar_size", i32 4}
!1 = !{!"clang version 10.0.0-4ubuntu1 "}
